target datalayout = "e-m:e-p270:32:32-p271:32:32-p272:64:64-i64:64-i128:128-f80:128-n8:16:32:64-S128"
target triple = "x86_64-pc-linux-gnu"

@.str.27 = private unnamed_addr constant [58 x i8] c"\0APredator-prey test problem --  KINSol (serial version)\0A\0A\00", align 1
@.str.28 = private unnamed_addr constant [27 x i8] c"Mesh dimensions = %d X %d\0A\00", align 1
@.str.29 = private unnamed_addr constant [24 x i8] c"Number of species = %d\0A\00", align 1
@.str.30 = private unnamed_addr constant [25 x i8] c"Total system size = %d\0A\0A\00", align 1
@.str.31 = private unnamed_addr constant [53 x i8] c"Flag globalstrategy = %d (0 = None, 1 = Linesearch)\0A\00", align 1
@.str.32 = private unnamed_addr constant [53 x i8] c"Linear solver is SPGMR with maxl = %d, maxlrst = %d\0A\00", align 1
@.str.33 = private unnamed_addr constant [40 x i8] c"Linear solver is SPBCGS with maxl = %d\0A\00", align 1
@.str.34 = private unnamed_addr constant [41 x i8] c"Linear solver is SPTFQMR with maxl = %d\0A\00", align 1
@.str.35 = private unnamed_addr constant [54 x i8] c"Linear solver is SPFGMR with maxl = %d, maxlrst = %d\0A\00", align 1
@.str.36 = private unnamed_addr constant [61 x i8] c"Preconditioning uses interaction-only block-diagonal matrix\0A\00", align 1
@.str.37 = private unnamed_addr constant [51 x i8] c"Positivity constraints imposed on all components \0A\00", align 1
@.str.38 = private unnamed_addr constant [55 x i8] c"Tolerance parameters:  fnormtol = %g   scsteptol = %g\0A\00", align 1
@.str.39 = private unnamed_addr constant [35 x i8] c"\0AInitial profile of concentration\0A\00", align 1
@.str.40 = private unnamed_addr constant [42 x i8] c"At all mesh points:  %g %g %g   %g %g %g\0A\00", align 1

; Function Attrs: nounwind uwtable
define internal void @PrintHeader(i32 noundef %0, i32 noundef %1, i32 noundef %2, double noundef %3, double noundef %4, i32 noundef %5) #0 {
  %7 = alloca i32, align 4
  %8 = alloca i32, align 4
  %9 = alloca i32, align 4
  %10 = alloca double, align 8
  %11 = alloca double, align 8
  %12 = alloca i32, align 4
  store i32 %0, ptr %7, align 4, !tbaa !14
  store i32 %1, ptr %8, align 4, !tbaa !14
  store i32 %2, ptr %9, align 4, !tbaa !14
  store double %3, ptr %10, align 8, !tbaa !21
  store double %4, ptr %11, align 8, !tbaa !21
  store i32 %5, ptr %12, align 4, !tbaa !14
  %13 = call i32 (ptr, ...) @printf(ptr noundef @.str.27)
  %14 = call i32 (ptr, ...) @printf(ptr noundef @.str.28, i32 noundef 5, i32 noundef 5)
  %15 = call i32 (ptr, ...) @printf(ptr noundef @.str.29, i32 noundef 6)
  %16 = call i32 (ptr, ...) @printf(ptr noundef @.str.30, i32 noundef 150)
  %17 = load i32, ptr %7, align 4, !tbaa !14
  %18 = call i32 (ptr, ...) @printf(ptr noundef @.str.31, i32 noundef %17)
  %19 = load i32, ptr %12, align 4, !tbaa !14
  switch i32 %19, label %34 [
    i32 0, label %20
    i32 1, label %24
    i32 2, label %27
    i32 3, label %30
  ]

20:                                               ; preds = %6
  %21 = load i32, ptr %8, align 4, !tbaa !14
  %22 = load i32, ptr %9, align 4, !tbaa !14
  %23 = call i32 (ptr, ...) @printf(ptr noundef @.str.32, i32 noundef %21, i32 noundef %22)
  br label %34

24:                                               ; preds = %6
  %25 = load i32, ptr %8, align 4, !tbaa !14
  %26 = call i32 (ptr, ...) @printf(ptr noundef @.str.33, i32 noundef %25)
  br label %34

27:                                               ; preds = %6
  %28 = load i32, ptr %8, align 4, !tbaa !14
  %29 = call i32 (ptr, ...) @printf(ptr noundef @.str.34, i32 noundef %28)
  br label %34

30:                                               ; preds = %6
  %31 = load i32, ptr %8, align 4, !tbaa !14
  %32 = load i32, ptr %9, align 4, !tbaa !14
  %33 = call i32 (ptr, ...) @printf(ptr noundef @.str.35, i32 noundef %31, i32 noundef %32)
  br label %34

34:                                               ; preds = %6, %30, %27, %24, %20
  %35 = call i32 (ptr, ...) @printf(ptr noundef @.str.36)
  %36 = call i32 (ptr, ...) @printf(ptr noundef @.str.37)
  %37 = load double, ptr %10, align 8, !tbaa !21
  %38 = load double, ptr %11, align 8, !tbaa !21
  %39 = call i32 (ptr, ...) @printf(ptr noundef @.str.38, double noundef %37, double noundef %38)
  %40 = call i32 (ptr, ...) @printf(ptr noundef @.str.39)
  %41 = call i32 (ptr, ...) @printf(ptr noundef @.str.40, double noundef 1.000000e+00, double noundef 1.000000e+00, double noundef 1.000000e+00, double noundef 3.000000e+04, double noundef 3.000000e+04, double noundef 3.000000e+04)
  ret void
}