; Function Attrs: nofree nounwind uwtable
define internal fastcc void @PrintHeader(i32 noundef %0, i32 noundef range(i32 -2147483648, 4) %1) unnamed_addr #5 {
  %puts = tail call i32 @puts(ptr nonnull dereferenceable(1) @str.9)
  %3 = tail call i32 (ptr, ...) @printf(ptr noundef nonnull dereferenceable(1) @.str.28, i32 noundef 5, i32 noundef 5)
  %4 = tail call i32 (ptr, ...) @printf(ptr noundef nonnull dereferenceable(1) @.str.29, i32 noundef 6)
  %5 = tail call i32 (ptr, ...) @printf(ptr noundef nonnull dereferenceable(1) @.str.30, i32 noundef 150)
  %6 = tail call i32 (ptr, ...) @printf(ptr noundef nonnull dereferenceable(1) @.str.31, i32 noundef 0)
  switch i32 %1, label %15 [
    i32 0, label %7
    i32 1, label %9
    i32 2, label %11
    i32 3, label %13
  ]

7:                                                ; preds = %2
  %8 = tail call i32 (ptr, ...) @printf(ptr noundef nonnull dereferenceable(1) @.str.32, i32 noundef %0, i32 noundef 2)
  br label %15

9:                                                ; preds = %2
  %10 = tail call i32 (ptr, ...) @printf(ptr noundef nonnull dereferenceable(1) @.str.33, i32 noundef %0)
  br label %15

11:                                               ; preds = %2
  %12 = tail call i32 (ptr, ...) @printf(ptr noundef nonnull dereferenceable(1) @.str.34, i32 noundef %0)
  br label %15

13:                                               ; preds = %2
  %14 = tail call i32 (ptr, ...) @printf(ptr noundef nonnull dereferenceable(1) @.str.35, i32 noundef %0, i32 noundef 2)
  br label %15

15:                                               ; preds = %13, %11, %9, %7, %2
  %puts9 = tail call i32 @puts(ptr nonnull dereferenceable(1) @str.10)
  %puts10 = tail call i32 @puts(ptr nonnull dereferenceable(1) @str.11)
  %16 = tail call i32 (ptr, ...) @printf(ptr noundef nonnull dereferenceable(1) @.str.38, double noundef 0x3E7AD7F29ABCAF48, double noundef 1.000000e-13)
  %puts11 = tail call i32 @puts(ptr nonnull dereferenceable(1) @str.12)
  %17 = tail call i32 (ptr, ...) @printf(ptr noundef nonnull dereferenceable(1) @.str.40, double noundef 1.000000e+00, double noundef 1.000000e+00, double noundef 1.000000e+00, double noundef 3.000000e+04, double noundef 3.000000e+04, double noundef 3.000000e+04)
  ret void
}